; Function Attrs: mustprogress nounwind uwtable
define dso_local void @_ZN4llvm17PredicateExpander24expandCheckIsVRegOperandERNS_11raw_ostreamEi(ptr nocapture noundef nonnull readonly align 8 dereferenceable(24) %0, ptr noundef nonnull align 8 dereferenceable(48) %1, i32 noundef %2) local_unnamed_addr #0 align 2 {
  %4 = getelementptr inbounds nuw i8, ptr %0, i64 1
  %5 = load i8, ptr %4, align 1
  %6 = trunc i8 %5 to i1
  %7 = select i1 %6, ptr @.str.11, ptr @.str.33
  %.mask = and i8 %5, 1
  %8 = zext nneg i8 %.mask to i64
  %9 = getelementptr inbounds nuw i8, ptr %1, i64 24
  %10 = load ptr, ptr %9, align 8
  %11 = getelementptr inbounds nuw i8, ptr %1, i64 32
  %12 = load ptr, ptr %11, align 8
  %13 = ptrtoint ptr %10 to i64
  %14 = ptrtoint ptr %12 to i64
  %15 = sub i64 %13, %14
  %16 = icmp ult i64 %15, %8
  br i1 %16, label %17, label %19

17:                                               ; preds = %3
  %18 = tail call noundef nonnull align 8 dereferenceable(48) ptr @_ZN4llvm11raw_ostream5writeEPKcm(ptr noundef nonnull align 8 dereferenceable(48) %1, ptr noundef nonnull %7, i64 noundef %8) #10
  %.phi.trans.insert = getelementptr inbounds nuw i8, ptr %18, i64 32
  %.pre = load ptr, ptr %.phi.trans.insert, align 8
  br label %_ZN4llvm11raw_ostreamlsEPKc.exit

19:                                               ; preds = %3
  %.not.i2.i = icmp eq i8 %.mask, 0
  br i1 %.not.i2.i, label %_ZN4llvm11raw_ostreamlsEPKc.exit, label %20

20:                                               ; preds = %19
  tail call void @llvm.memcpy.p0.p0.i64(ptr align 1 %12, ptr nonnull align 1 %7, i64 %8, i1 false)
  %21 = load ptr, ptr %11, align 8
  %22 = getelementptr inbounds i8, ptr %21, i64 %8
  store ptr %22, ptr %11, align 8
  br label %_ZN4llvm11raw_ostreamlsEPKc.exit

_ZN4llvm11raw_ostreamlsEPKc.exit:                 ; preds = %17, %19, %20
  %23 = phi ptr [ %.pre, %17 ], [ %22, %20 ], [ %12, %19 ]
  %.0.i.i = phi ptr [ %18, %17 ], [ %1, %20 ], [ %1, %19 ]
  %24 = getelementptr inbounds nuw i8, ptr %.0.i.i, i64 24
  %25 = load ptr, ptr %24, align 8
  %26 = ptrtoint ptr %25 to i64
  %27 = ptrtoint ptr %23 to i64
  %28 = sub i64 %26, %27
  %29 = icmp ult i64 %28, 2
  br i1 %29, label %30, label %32

30:                                               ; preds = %_ZN4llvm11raw_ostreamlsEPKc.exit
  %31 = tail call noundef nonnull align 8 dereferenceable(48) ptr @_ZN4llvm11raw_ostream5writeEPKcm(ptr noundef nonnull align 8 dereferenceable(48) %.0.i.i, ptr noundef nonnull @.str.3, i64 noundef 2) #10
  %.phi.trans.insert14 = getelementptr inbounds nuw i8, ptr %31, i64 32
  %.pre15 = load ptr, ptr %.phi.trans.insert14, align 8
  br label %_ZN4llvm11raw_ostreamlsEPKc.exit4

32:                                               ; preds = %_ZN4llvm11raw_ostreamlsEPKc.exit
  %33 = getelementptr inbounds nuw i8, ptr %.0.i.i, i64 32
  store i16 18765, ptr %23, align 1
  %34 = load ptr, ptr %33, align 8
  %35 = getelementptr inbounds i8, ptr %34, i64 2
  store ptr %35, ptr %33, align 8
  br label %_ZN4llvm11raw_ostreamlsEPKc.exit4

_ZN4llvm11raw_ostreamlsEPKc.exit4:                ; preds = %30, %32
  %36 = phi ptr [ %.pre15, %30 ], [ %35, %32 ]
  %.0.i.i3 = phi ptr [ %31, %30 ], [ %.0.i.i, %32 ]
  %37 = load i8, ptr %0, align 8
  %38 = trunc i8 %37 to i1
  %39 = select i1 %38, ptr @.str.4, ptr @.str.5
  %40 = select i1 %38, i64 1, i64 2
  %41 = getelementptr inbounds nuw i8, ptr %.0.i.i3, i64 24
  %42 = load ptr, ptr %41, align 8
  %43 = ptrtoint ptr %42 to i64
  %44 = ptrtoint ptr %36 to i64
  %45 = sub i64 %43, %44
  %46 = icmp ugt i64 %40, %45
  br i1 %46, label %47, label %49

47:                                               ; preds = %_ZN4llvm11raw_ostreamlsEPKc.exit4
  %48 = tail call noundef nonnull align 8 dereferenceable(48) ptr @_ZN4llvm11raw_ostream5writeEPKcm(ptr noundef nonnull align 8 dereferenceable(48) %.0.i.i3, ptr noundef nonnull %39, i64 noundef %40) #10
  %.phi.trans.insert16 = getelementptr inbounds nuw i8, ptr %48, i64 32
  %.pre17 = load ptr, ptr %.phi.trans.insert16, align 8
  br label %_ZN4llvm11raw_ostreamlsEPKc.exit7

49:                                               ; preds = %_ZN4llvm11raw_ostreamlsEPKc.exit4
  %50 = getelementptr inbounds nuw i8, ptr %.0.i.i3, i64 32
  tail call void @llvm.memcpy.p0.p0.i64(ptr noundef nonnull align 1 dereferenceable(1) %36, ptr noundef nonnull align 1 dereferenceable(1) %39, i64 %40, i1 false)
  %51 = load ptr, ptr %50, align 8
  %52 = getelementptr inbounds i8, ptr %51, i64 %40
  store ptr %52, ptr %50, align 8
  br label %_ZN4llvm11raw_ostreamlsEPKc.exit7

_ZN4llvm11raw_ostreamlsEPKc.exit7:                ; preds = %47, %49
  %53 = phi ptr [ %.pre17, %47 ], [ %52, %49 ]
  %.0.i.i6 = phi ptr [ %48, %47 ], [ %.0.i.i3, %49 ]
  %54 = getelementptr inbounds nuw i8, ptr %.0.i.i6, i64 24
  %55 = load ptr, ptr %54, align 8
  %56 = ptrtoint ptr %55 to i64
  %57 = ptrtoint ptr %53 to i64
  %58 = sub i64 %56, %57
  %59 = icmp ult i64 %58, 11
  br i1 %59, label %60, label %62

60:                                               ; preds = %_ZN4llvm11raw_ostreamlsEPKc.exit7
  %61 = tail call noundef nonnull align 8 dereferenceable(48) ptr @_ZN4llvm11raw_ostream5writeEPKcm(ptr noundef nonnull align 8 dereferenceable(48) %.0.i.i6, ptr noundef nonnull @.str.6, i64 noundef 11) #10
  br label %_ZN4llvm11raw_ostreamlsEPKc.exit10

62:                                               ; preds = %_ZN4llvm11raw_ostreamlsEPKc.exit7
  %63 = getelementptr inbounds nuw i8, ptr %.0.i.i6, i64 32
  tail call void @llvm.memcpy.p0.p0.i64(ptr noundef nonnull align 1 dereferenceable(11) %53, ptr noundef nonnull align 1 dereferenceable(11) @.str.6, i64 11, i1 false)
  %64 = load ptr, ptr %63, align 8
  %65 = getelementptr inbounds i8, ptr %64, i64 11
  store ptr %65, ptr %63, align 8
  br label %_ZN4llvm11raw_ostreamlsEPKc.exit10

_ZN4llvm11raw_ostreamlsEPKc.exit10:               ; preds = %60, %62
  %.0.i.i9 = phi ptr [ %61, %60 ], [ %.0.i.i6, %62 ]
  %66 = sext i32 %2 to i64
  %67 = tail call noundef nonnull align 8 dereferenceable(48) ptr @_ZN4llvm11raw_ostreamlsEl(ptr noundef nonnull align 8 dereferenceable(48) %.0.i.i9, i64 noundef %66) #10
  %68 = getelementptr inbounds nuw i8, ptr %67, i64 24
  %69 = load ptr, ptr %68, align 8
  %70 = getelementptr inbounds nuw i8, ptr %67, i64 32
  %71 = load ptr, ptr %70, align 8
  %72 = ptrtoint ptr %69 to i64
  %73 = ptrtoint ptr %71 to i64
  %74 = sub i64 %72, %73
  %75 = icmp ult i64 %74, 22
  br i1 %75, label %76, label %78

76:                                               ; preds = %_ZN4llvm11raw_ostreamlsEPKc.exit10
  %77 = tail call noundef nonnull align 8 dereferenceable(48) ptr @_ZN4llvm11raw_ostream5writeEPKcm(ptr noundef nonnull align 8 dereferenceable(48) %67, ptr noundef nonnull @.str.39, i64 noundef 22) #10
  br label %_ZN4llvm11raw_ostreamlsEPKc.exit13

78:                                               ; preds = %_ZN4llvm11raw_ostreamlsEPKc.exit10
  tail call void @llvm.memcpy.p0.p0.i64(ptr noundef nonnull align 1 dereferenceable(22) %71, ptr noundef nonnull align 1 dereferenceable(22) @.str.39, i64 22, i1 false)
  %79 = load ptr, ptr %70, align 8
  %80 = getelementptr inbounds i8, ptr %79, i64 22
  store ptr %80, ptr %70, align 8
  br label %_ZN4llvm11raw_ostreamlsEPKc.exit13

_ZN4llvm11raw_ostreamlsEPKc.exit13:               ; preds = %76, %78
  ret void
}